target datalayout = "e-m:e-p270:32:32-p271:32:32-p272:64:64-i64:64-i128:128-f80:128-n8:16:32:64-S128"
target triple = "x86_64-pc-linux-gnu"

%class.anon.659 = type { ptr, i64 }

; Function Attrs: mustprogress uwtable
define internal noundef zeroext i1 @_ZZN19cmJSONHelperBuilder6ObjectIN12_GLOBAL__N_111RootPresetsEE4BindIS2_St6vectorIN19cmCMakePresetsGraph13PackagePresetESaIS7_EEPFbRS9_PKN4Json5ValueEP11cmJSONStateEEERS3_RKSt17basic_string_viewIcSt11char_traitsIcEEMT_T0_T1_bENKUlRS2_SE_SG_E_clESU_SE_SG_(ptr noundef nonnull align 8 dereferenceable(16) %0, ptr noundef nonnull align 8 dereferenceable(160) %1, ptr noundef %2, ptr noundef %3) #4 align 2 {
  %5 = alloca ptr, align 8
  %6 = alloca ptr, align 8
  %7 = alloca ptr, align 8
  %8 = alloca ptr, align 8
  store ptr %0, ptr %5, align 8
  store ptr %1, ptr %6, align 8
  store ptr %2, ptr %7, align 8
  store ptr %3, ptr %8, align 8
  %9 = load ptr, ptr %5, align 8
  %10 = getelementptr inbounds %class.anon.659, ptr %9, i32 0, i32 0
  %11 = load ptr, ptr %10, align 8
  %12 = load ptr, ptr %6, align 8
  %13 = getelementptr inbounds %class.anon.659, ptr %9, i32 0, i32 1
  %14 = load i64, ptr %13, align 8
  %15 = getelementptr inbounds i8, ptr %12, i64 %14
  %16 = load ptr, ptr %7, align 8
  %17 = load ptr, ptr %8, align 8
  %18 = call noundef zeroext i1 %11(ptr noundef nonnull align 8 dereferenceable(24) %15, ptr noundef %16, ptr noundef %17)
  ret i1 %18
}

; Function Attrs: mustprogress nounwind uwtable
define linkonce_odr dso_local noundef ptr @_ZNKSt9_Any_data9_M_accessEv(ptr noundef nonnull align 8 dereferenceable(16) %0) #5 comdat align 2 {
  %2 = alloca ptr, align 8
  store ptr %0, ptr %2, align 8
  %3 = load ptr, ptr %2, align 8
  %4 = getelementptr inbounds [16 x i8], ptr %3, i64 0, i64 0
  ret ptr %4
}

; Function Attrs: mustprogress uwtable
define internal noundef zeroext i1 @_ZSt13__invoke_implIbRZN19cmJSONHelperBuilder6ObjectIN12_GLOBAL__N_111RootPresetsEE4BindIS3_St6vectorIN19cmCMakePresetsGraph13PackagePresetESaIS8_EEPFbRSA_PKN4Json5ValueEP11cmJSONStateEEERS4_RKSt17basic_string_viewIcSt11char_traitsIcEEMT_T0_T1_bEUlRS3_SF_SH_E_JSV_SF_SH_EESR_St14__invoke_otherOSS_DpOT1_(ptr noundef nonnull align 8 dereferenceable(16) %0, ptr noundef nonnull align 8 dereferenceable(160) %1, ptr noundef nonnull align 8 dereferenceable(8) %2, ptr noundef nonnull align 8 dereferenceable(8) %3) #4 {
  %5 = alloca ptr, align 8
  %6 = alloca ptr, align 8
  %7 = alloca ptr, align 8
  %8 = alloca ptr, align 8
  store ptr %0, ptr %5, align 8
  store ptr %1, ptr %6, align 8
  store ptr %2, ptr %7, align 8
  store ptr %3, ptr %8, align 8
  %9 = load ptr, ptr %5, align 8
  %10 = load ptr, ptr %6, align 8
  %11 = load ptr, ptr %7, align 8
  %12 = load ptr, ptr %11, align 8
  %13 = load ptr, ptr %8, align 8
  %14 = load ptr, ptr %13, align 8
  %15 = call noundef zeroext i1 @_ZZN19cmJSONHelperBuilder6ObjectIN12_GLOBAL__N_111RootPresetsEE4BindIS2_St6vectorIN19cmCMakePresetsGraph13PackagePresetESaIS7_EEPFbRS9_PKN4Json5ValueEP11cmJSONStateEEERS3_RKSt17basic_string_viewIcSt11char_traitsIcEEMT_T0_T1_bENKUlRS2_SE_SG_E_clESU_SE_SG_(ptr noundef nonnull align 8 dereferenceable(16) %9, ptr noundef nonnull align 8 dereferenceable(160) %10, ptr noundef %12, ptr noundef %14)
  ret i1 %15
}

; Function Attrs: mustprogress nounwind uwtable
define internal noundef nonnull align 8 dereferenceable(16) ptr @_ZNKSt9_Any_data9_M_accessIZN19cmJSONHelperBuilder6ObjectIN12_GLOBAL__N_111RootPresetsEE4BindIS4_St6vectorIN19cmCMakePresetsGraph13PackagePresetESaIS9_EEPFbRSB_PKN4Json5ValueEP11cmJSONStateEEERS5_RKSt17basic_string_viewIcSt11char_traitsIcEEMT_T0_T1_bEUlRS4_SG_SI_E_EERKSS_v(ptr noundef nonnull align 8 dereferenceable(16) %0) #5 align 2 {
  %2 = alloca ptr, align 8
  store ptr %0, ptr %2, align 8
  %3 = load ptr, ptr %2, align 8
  %4 = call noundef ptr @_ZNKSt9_Any_data9_M_accessEv(ptr noundef nonnull align 8 dereferenceable(16) %3) #3
  ret ptr %4
}

; Function Attrs: mustprogress uwtable
define internal noundef zeroext i1 @_ZSt10__invoke_rIbRZN19cmJSONHelperBuilder6ObjectIN12_GLOBAL__N_111RootPresetsEE4BindIS3_St6vectorIN19cmCMakePresetsGraph13PackagePresetESaIS8_EEPFbRSA_PKN4Json5ValueEP11cmJSONStateEEERS4_RKSt17basic_string_viewIcSt11char_traitsIcEEMT_T0_T1_bEUlRS3_SF_SH_E_JSV_SF_SH_EENSt9enable_ifIX16is_invocable_r_vISR_SS_DpT1_EESR_E4typeEOSS_DpOSZ_(ptr noundef nonnull align 8 dereferenceable(16) %0, ptr noundef nonnull align 8 dereferenceable(160) %1, ptr noundef nonnull align 8 dereferenceable(8) %2, ptr noundef nonnull align 8 dereferenceable(8) %3) #4 {
  %5 = alloca ptr, align 8
  %6 = alloca ptr, align 8
  %7 = alloca ptr, align 8
  %8 = alloca ptr, align 8
  store ptr %0, ptr %5, align 8
  store ptr %1, ptr %6, align 8
  store ptr %2, ptr %7, align 8
  store ptr %3, ptr %8, align 8
  %9 = load ptr, ptr %5, align 8
  %10 = load ptr, ptr %6, align 8
  %11 = load ptr, ptr %7, align 8
  %12 = load ptr, ptr %8, align 8
  %13 = call noundef zeroext i1 @_ZSt13__invoke_implIbRZN19cmJSONHelperBuilder6ObjectIN12_GLOBAL__N_111RootPresetsEE4BindIS3_St6vectorIN19cmCMakePresetsGraph13PackagePresetESaIS8_EEPFbRSA_PKN4Json5ValueEP11cmJSONStateEEERS4_RKSt17basic_string_viewIcSt11char_traitsIcEEMT_T0_T1_bEUlRS3_SF_SH_E_JSV_SF_SH_EESR_St14__invoke_otherOSS_DpOT1_(ptr noundef nonnull align 8 dereferenceable(16) %9, ptr noundef nonnull align 8 dereferenceable(160) %10, ptr noundef nonnull align 8 dereferenceable(8) %11, ptr noundef nonnull align 8 dereferenceable(8) %12)
  ret i1 %13
}

; Function Attrs: mustprogress nounwind uwtable
define internal noundef ptr @_ZNSt14_Function_base13_Base_managerIZN19cmJSONHelperBuilder6ObjectIN12_GLOBAL__N_111RootPresetsEE4BindIS4_St6vectorIN19cmCMakePresetsGraph13PackagePresetESaIS9_EEPFbRSB_PKN4Json5ValueEP11cmJSONStateEEERS5_RKSt17basic_string_viewIcSt11char_traitsIcEEMT_T0_T1_bEUlRS4_SG_SI_E_E14_M_get_pointerERKSt9_Any_data(ptr noundef nonnull align 8 dereferenceable(16) %0) #5 align 2 {
  %2 = alloca ptr, align 8
  %3 = alloca ptr, align 8
  store ptr %0, ptr %2, align 8
  %4 = load ptr, ptr %2, align 8
  %5 = call noundef nonnull align 8 dereferenceable(16) ptr @_ZNKSt9_Any_data9_M_accessIZN19cmJSONHelperBuilder6ObjectIN12_GLOBAL__N_111RootPresetsEE4BindIS4_St6vectorIN19cmCMakePresetsGraph13PackagePresetESaIS9_EEPFbRSB_PKN4Json5ValueEP11cmJSONStateEEERS5_RKSt17basic_string_viewIcSt11char_traitsIcEEMT_T0_T1_bEUlRS4_SG_SI_E_EERKSS_v(ptr noundef nonnull align 8 dereferenceable(16) %4) #3
  store ptr %5, ptr %3, align 8
  %6 = load ptr, ptr %3, align 8
  ret ptr %6
}

; Function Attrs: mustprogress uwtable
define internal noundef zeroext i1 @_ZNSt17_Function_handlerIFbRN12_GLOBAL__N_111RootPresetsEPKN4Json5ValueEP11cmJSONStateEZN19cmJSONHelperBuilder6ObjectIS1_E4BindIS1_St6vectorIN19cmCMakePresetsGraph13PackagePresetESaISG_EEPFbRSI_S6_S8_EEERSC_RKSt17basic_string_viewIcSt11char_traitsIcEEMT_T0_T1_bEUlS2_S6_S8_E_E9_M_invokeERKSt9_Any_dataS2_OS6_OS8_(ptr noundef nonnull align 8 dereferenceable(16) %0, ptr noundef nonnull align 8 dereferenceable(160) %1, ptr noundef nonnull align 8 dereferenceable(8) %2, ptr noundef nonnull align 8 dereferenceable(8) %3) #4 align 2 {
  %5 = alloca ptr, align 8
  %6 = alloca ptr, align 8
  %7 = alloca ptr, align 8
  %8 = alloca ptr, align 8
  store ptr %0, ptr %5, align 8
  store ptr %1, ptr %6, align 8
  store ptr %2, ptr %7, align 8
  store ptr %3, ptr %8, align 8
  %9 = load ptr, ptr %5, align 8
  %10 = call noundef ptr @_ZNSt14_Function_base13_Base_managerIZN19cmJSONHelperBuilder6ObjectIN12_GLOBAL__N_111RootPresetsEE4BindIS4_St6vectorIN19cmCMakePresetsGraph13PackagePresetESaIS9_EEPFbRSB_PKN4Json5ValueEP11cmJSONStateEEERS5_RKSt17basic_string_viewIcSt11char_traitsIcEEMT_T0_T1_bEUlRS4_SG_SI_E_E14_M_get_pointerERKSt9_Any_data(ptr noundef nonnull align 8 dereferenceable(16) %9) #3
  %11 = load ptr, ptr %6, align 8
  %12 = load ptr, ptr %7, align 8
  %13 = load ptr, ptr %8, align 8
  %14 = call noundef zeroext i1 @_ZSt10__invoke_rIbRZN19cmJSONHelperBuilder6ObjectIN12_GLOBAL__N_111RootPresetsEE4BindIS3_St6vectorIN19cmCMakePresetsGraph13PackagePresetESaIS8_EEPFbRSA_PKN4Json5ValueEP11cmJSONStateEEERS4_RKSt17basic_string_viewIcSt11char_traitsIcEEMT_T0_T1_bEUlRS3_SF_SH_E_JSV_SF_SH_EENSt9enable_ifIX16is_invocable_r_vISR_SS_DpT1_EESR_E4typeEOSS_DpOSZ_(ptr noundef nonnull align 8 dereferenceable(16) %10, ptr noundef nonnull align 8 dereferenceable(160) %11, ptr noundef nonnull align 8 dereferenceable(8) %12, ptr noundef nonnull align 8 dereferenceable(8) %13)
  ret i1 %14
}