; Function Attrs: mustprogress uwtable
define internal noundef zeroext i1 @_ZNSt17_Function_handlerIFbRN12_GLOBAL__N_111RootPresetsEPKN4Json5ValueEP11cmJSONStateEZN19cmJSONHelperBuilder6ObjectIS1_E4BindIS1_St6vectorIN19cmCMakePresetsGraph13PackagePresetESaISG_EEPFbRSI_S6_S8_EEERSC_RKSt17basic_string_viewIcSt11char_traitsIcEEMT_T0_T1_bEUlS2_S6_S8_E_E9_M_invokeERKSt9_Any_dataS2_OS6_OS8_(ptr nocapture noundef nonnull readonly align 8 dereferenceable(16) %0, ptr noundef nonnull align 8 dereferenceable(160) %1, ptr nocapture noundef nonnull readonly align 8 dereferenceable(8) %2, ptr nocapture noundef nonnull readonly align 8 dereferenceable(8) %3) #3 align 2 {
  %.val = load ptr, ptr %0, align 8
  %5 = getelementptr inbounds i8, ptr %0, i64 8
  %.val4 = load i64, ptr %5, align 8
  %.val5 = load ptr, ptr %2, align 8
  %.val6 = load ptr, ptr %3, align 8
  %6 = getelementptr inbounds i8, ptr %1, i64 %.val4
  %7 = tail call noundef zeroext i1 %.val(ptr noundef nonnull align 8 dereferenceable(24) %6, ptr noundef %.val5, ptr noundef %.val6)
  ret i1 %7
}